EXPORTS
	_ZN11CThreadInfo12ExternalizeLER12RWriteStreamP8CBufFlat @ 1 NONAME
	_ZN11CThreadInfo12InternalizeLER11RReadStream @ 2 NONAME
	_ZN11CThreadInfo4NewLERK6TDesC8 @ 3 NONAME
	_ZN11CThreadInfo4NewLERKyRK7TDesC16S1_RKjRKmS8_S6_S8_S6_ @ 4 NONAME
	_ZN11CThreadInfo5NameLERK7TDesC16 @ 5 NONAME
	_ZN11CThreadInfo7MaxSizeEv @ 6 NONAME
	_ZN11CThreadInfo8ObservedEi @ 7 NONAME
	_ZN11CThreadInfoD0Ev @ 8 NONAME
	_ZN11CThreadInfoD1Ev @ 9 NONAME
	_ZN11CThreadInfoD2Ev @ 10 NONAME
	_ZN12CProcessInfo12ExternalizeLER12RWriteStreamP8CBufFlat @ 11 NONAME
	_ZN12CProcessInfo12InternalizeLER11RReadStream @ 12 NONAME
	_ZN12CProcessInfo4NewLERK6TDesC8 @ 13 NONAME
	_ZN12CProcessInfo4NewLEyRK7TDesC16 @ 14 NONAME
	_ZN12CProcessInfo5NameLERK7TDesC16 @ 15 NONAME
	_ZN12CProcessInfo7MaxSizeEv @ 16 NONAME
	_ZN12CProcessInfo8ObservedEi @ 17 NONAME
	_ZN12CProcessInfoD0Ev @ 18 NONAME
	_ZN12CProcessInfoD1Ev @ 19 NONAME
	_ZN12CProcessInfoD2Ev @ 20 NONAME
	_ZN13COptionConfig12ExternalizeLER12RWriteStreamP8CBufFlat @ 21 NONAME
	_ZN13COptionConfig12InternalizeLER11RReadStream @ 22 NONAME
	_ZN13COptionConfig4NewLERK6TDesC8 @ 23 NONAME
	_ZN13COptionConfig4NewLERKmS1_RKNS_16TParameterSourceERKNS_11TOptionTypeERK7TDesC16S1_SA_RKlSA_ @ 24 NONAME
	_ZN13COptionConfig5ValueEl @ 25 NONAME
	_ZN13COptionConfig6ValueLERK7TDesC16 @ 26 NONAME
	_ZN13COptionConfig7MaxSizeEv @ 27 NONAME
	_ZN13COptionConfigC1Ev @ 28 NONAME
	_ZN13COptionConfigC2Ev @ 29 NONAME
	_ZN13COptionConfigD0Ev @ 30 NONAME
	_ZN13COptionConfigD1Ev @ 31 NONAME
	_ZN13COptionConfigD2Ev @ 32 NONAME
	_ZN13TRegisterData10SetContentERKS_ @ 33 NONAME
	_ZN13TRegisterData10SetContentEj @ 34 NONAME
	_ZN13TRegisterData11SetContent8Eh @ 35 NONAME
	_ZN13TRegisterData12SetAvailableEi @ 36 NONAME
	_ZN13TRegisterData12SetContent16Et @ 37 NONAME
	_ZN13TRegisterData12SetContent32Em @ 38 NONAME
	_ZN13TRegisterData12SetContent64Ey @ 39 NONAME
	_ZN15CExecutableInfo12ExternalizeLER12RWriteStreamP8CBufFlat @ 40 NONAME
	_ZN15CExecutableInfo12InternalizeLER11RReadStream @ 41 NONAME
	_ZN15CExecutableInfo16ActivelyDebuggedEi @ 42 NONAME
	_ZN15CExecutableInfo17PassivelyDebuggedEi @ 43 NONAME
	_ZN15CExecutableInfo4NewLERK6TDesC8 @ 44 NONAME
	_ZN15CExecutableInfo4NewLERK7TDesC16ii @ 45 NONAME
	_ZN15CExecutableInfo5NameLERK7TDesC16 @ 46 NONAME
	_ZN15CExecutableInfo7MaxSizeEv @ 47 NONAME
	_ZN15CExecutableInfo8ObservedEi @ 48 NONAME
	_ZN15CExecutableInfoD0Ev @ 49 NONAME
	_ZN15CExecutableInfoD1Ev @ 50 NONAME
	_ZN15CExecutableInfoD2Ev @ 51 NONAME
	_ZN18CStreamElementBase12MarshalDataLEv @ 52 NONAME
	_ZNK11CThreadInfo11SvcStackPtrEv @ 53 NONAME
	_ZNK11CThreadInfo12SvcStackAddrEv @ 54 NONAME
	_ZNK11CThreadInfo12SvcStackSizeEv @ 55 NONAME
	_ZNK11CThreadInfo12UsrStackAddrEv @ 56 NONAME
	_ZNK11CThreadInfo12UsrStackSizeEv @ 57 NONAME
	_ZNK11CThreadInfo2IdEv @ 58 NONAME
	_ZNK11CThreadInfo4NameEv @ 59 NONAME
	_ZNK11CThreadInfo4SizeEv @ 60 NONAME
	_ZNK11CThreadInfo8ObservedEv @ 61 NONAME
	_ZNK11CThreadInfo8PriorityEv @ 62 NONAME
	_ZNK11CThreadInfo9ProcessIdEv @ 63 NONAME
	_ZNK12CProcessInfo2IdEv @ 64 NONAME
	_ZNK12CProcessInfo4NameEv @ 65 NONAME
	_ZNK12CProcessInfo4SizeEv @ 66 NONAME
	_ZNK12CProcessInfo8ObservedEv @ 67 NONAME
	_ZNK13COptionConfig10NumOptionsEv @ 68 NONAME
	_ZNK13COptionConfig11ValueAsBoolEv @ 69 NONAME
	_ZNK13COptionConfig11ValueAsDescEv @ 70 NONAME
	_ZNK13COptionConfig3UidEv @ 71 NONAME
	_ZNK13COptionConfig4SizeEv @ 72 NONAME
	_ZNK13COptionConfig4TypeEv @ 73 NONAME
	_ZNK13COptionConfig5IndexEv @ 74 NONAME
	_ZNK13COptionConfig5ValueEv @ 75 NONAME
	_ZNK13COptionConfig6PromptEv @ 76 NONAME
	_ZNK13COptionConfig6SourceEv @ 77 NONAME
	_ZNK13COptionConfig7OptionsEv @ 78 NONAME
	_ZNK13TRegisterData11GetContent8Ev @ 79 NONAME
	_ZNK13TRegisterData12GetContent16Ev @ 80 NONAME
	_ZNK13TRegisterData12GetContent32Ev @ 81 NONAME
	_ZNK13TRegisterData12GetContent64Ev @ 82 NONAME
	_ZNK13TRegisterData12SameRegisterERKS_ @ 83 NONAME
	_ZNK13TRegisterData5GetIdEv @ 84 NONAME
	_ZNK13TRegisterData7GetSizeEv @ 85 NONAME
	_ZNK13TRegisterData8GetClassEv @ 86 NONAME
	_ZNK13TRegisterData8GetSubIdEv @ 87 NONAME
	_ZNK13TRegisterData9AvailableEv @ 88 NONAME
	_ZNK15CExecutableInfo16ActivelyDebuggedEv @ 89 NONAME
	_ZNK15CExecutableInfo17PassivelyDebuggedEv @ 90 NONAME
	_ZNK15CExecutableInfo4NameEv @ 91 NONAME
	_ZNK15CExecutableInfo4SizeEv @ 92 NONAME
	_ZNK15CExecutableInfo8ObservedEv @ 93 NONAME
	_ZTI11CThreadInfo @ 94 NONAME
	_ZTI12CProcessInfo @ 95 NONAME
	_ZTI13COptionConfig @ 96 NONAME
	_ZTI15CExecutableInfo @ 97 NONAME
	_ZTV11CThreadInfo @ 98 NONAME
	_ZTV12CProcessInfo @ 99 NONAME
	_ZTV13COptionConfig @ 100 NONAME
	_ZTV15CExecutableInfo @ 101 NONAME
	_ZN10TCrashInfo12ExternalizeLER12RWriteStreamP8CBufFlat @ 102 NONAME
	_ZN10TCrashInfo12InternalizeLER11RReadStream @ 103 NONAME
	_ZN10TCrashInfo4NewLERK6TDesC8 @ 104 NONAME
	_ZN10TCrashInfo4NewLERKN5Debug16TCrashInfoHeaderE @ 105 NONAME
	_ZN10TCrashInfo7MaxSizeEv @ 106 NONAME
	_ZN10TCrashInfoC1Ev @ 107 NONAME
	_ZN10TCrashInfoC2Ev @ 108 NONAME
	_ZN11CPluginInfo12ExternalizeLER12RWriteStreamP8CBufFlat @ 109 NONAME
	_ZN11CPluginInfo12InternalizeLER11RReadStream @ 110 NONAME
	_ZN11CPluginInfo3UidEi @ 111 NONAME
	_ZN11CPluginInfo4NewLERK6TDesC8 @ 112 NONAME
	_ZN11CPluginInfo4NewLERK7TDesC16ijN14TPluginRequest11TPluginTypeE @ 113 NONAME
	_ZN11CPluginInfo4PairEj @ 114 NONAME
	_ZN11CPluginInfo4TypeEN14TPluginRequest11TPluginTypeE @ 115 NONAME
	_ZN11CPluginInfo5NameLERK7TDesC16 @ 116 NONAME
	_ZN11CPluginInfo7MaxSizeEv @ 117 NONAME
	_ZN11CPluginInfo7VersionEj @ 118 NONAME
	_ZN11CPluginInfoD0Ev @ 119 NONAME
	_ZN11CPluginInfoD1Ev @ 120 NONAME
	_ZN11CPluginInfoD2Ev @ 121 NONAME
	_ZN13COptionConfig8InstanceEl @ 122 NONAME
	_ZNK11CPluginInfo3UidEv @ 123 NONAME
	_ZNK11CPluginInfo4NameEv @ 124 NONAME
	_ZNK11CPluginInfo4PairEv @ 125 NONAME
	_ZNK11CPluginInfo4SizeEv @ 126 NONAME
	_ZNK11CPluginInfo4TypeEv @ 127 NONAME
	_ZNK11CPluginInfo7VersionEv @ 128 NONAME
	_ZNK13COptionConfig8InstanceEv @ 129 NONAME
	_ZTI11CPluginInfo @ 130 NONAME
	_ZTV11CPluginInfo @ 131 NONAME
	_ZN11CThreadInfo11SetHeapBaseEm @ 132 NONAME
	_ZN11CThreadInfo11SetHeapSizeEm @ 133 NONAME
	_ZN11CThreadInfo12SetLastCpuIdEl @ 134 NONAME
	_ZNK11CThreadInfo8HeapBaseEv @ 135 NONAME
	_ZNK11CThreadInfo8HeapSizeEv @ 136 NONAME
	_ZNK11CThreadInfo9LastCpuIdEv @ 137 NONAME

